target datalayout = "e-m:e-p270:32:32-p271:32:32-p272:64:64-i64:64-i128:128-f80:128-n8:16:32:64-S128"
target triple = "x86_64-pc-linux-gnu"

%struct.agxbuf = type { %union.anon.0 }
%union.anon.0 = type { %struct.anon }
%struct.anon = type { ptr, i64, i64, [7 x i8], i8 }

@G = internal global ptr null, align 8
@L = internal global ptr null, align 8

; Function Attrs: inlinehint nounwind uwtable
define internal void @agxbfree(ptr noundef %0) #1 {
  %2 = alloca ptr, align 8
  store ptr %0, ptr %2, align 8, !tbaa !4
  %3 = load ptr, ptr %2, align 8, !tbaa !4
  %4 = getelementptr inbounds nuw %struct.agxbuf, ptr %3, i32 0, i32 0
  %5 = getelementptr inbounds nuw %struct.anon, ptr %4, i32 0, i32 4
  %6 = load i8, ptr %5, align 1, !tbaa !25
  %7 = zext i8 %6 to i32
  %8 = icmp eq i32 %7, 255
  br i1 %8, label %9, label %14

9:                                                ; preds = %1
  %10 = load ptr, ptr %2, align 8, !tbaa !4
  %11 = getelementptr inbounds nuw %struct.agxbuf, ptr %10, i32 0, i32 0
  %12 = getelementptr inbounds nuw %struct.anon, ptr %11, i32 0, i32 0
  %13 = load ptr, ptr %12, align 8, !tbaa !25
  call void @free(ptr noundef %13) #15
  br label %14

14:                                               ; preds = %9, %1
  ret void
}

; Function Attrs: nounwind uwtable
define dso_local ptr @gml_to_gv(ptr noundef %0, ptr noundef %1, i32 noundef %2, ptr noundef %3) #0 {
  %5 = alloca ptr, align 8
  %6 = alloca ptr, align 8
  %7 = alloca i32, align 4
  %8 = alloca ptr, align 8
  %9 = alloca ptr, align 8
  %10 = alloca i32, align 4
  %11 = alloca %struct.agxbuf, align 8
  %12 = alloca %struct.agxbuf, align 8
  store ptr %0, ptr %5, align 8, !tbaa !21
  store ptr %1, ptr %6, align 8, !tbaa !40
  store i32 %2, ptr %7, align 4, !tbaa !19
  store ptr %3, ptr %8, align 8, !tbaa !47
  call void @llvm.lifetime.start.p0(i64 8, ptr %9) #15
  call void @llvm.lifetime.start.p0(i64 4, ptr %10) #15
  %13 = load i32, ptr %7, align 4, !tbaa !19
  %14 = icmp eq i32 %13, 0
  br i1 %14, label %15, label %17

15:                                               ; preds = %4
  %16 = load ptr, ptr %6, align 8, !tbaa !40
  call void @initgmlscan(ptr noundef %16)
  br label %18

17:                                               ; preds = %4
  call void @initgmlscan(ptr noundef null)
  br label %18

18:                                               ; preds = %17, %15
  store ptr null, ptr @L, align 8, !tbaa !4
  call void @pushAlist()
  %19 = call i32 @gmlparse()
  %20 = call i32 @gmlerrors()
  store i32 %20, ptr %10, align 4, !tbaa !19
  %21 = load i32, ptr %10, align 4, !tbaa !19
  %22 = load ptr, ptr %8, align 8, !tbaa !47
  %23 = load i32, ptr %22, align 4, !tbaa !19
  %24 = or i32 %23, %21
  store i32 %24, ptr %22, align 4, !tbaa !19
  %25 = load ptr, ptr @G, align 8, !tbaa !11
  %26 = icmp ne ptr %25, null
  br i1 %26, label %27, label %30

27:                                               ; preds = %18
  %28 = load i32, ptr %10, align 4, !tbaa !19
  %29 = icmp ne i32 %28, 0
  br i1 %29, label %30, label %31

30:                                               ; preds = %27, %18
  store ptr null, ptr %9, align 8, !tbaa !49
  br label %35

31:                                               ; preds = %27
  call void @llvm.lifetime.start.p0(i64 32, ptr %11) #15
  call void @llvm.memset.p0.i64(ptr align 8 %11, i8 0, i64 32, i1 false)
  call void @llvm.lifetime.start.p0(i64 32, ptr %12) #15
  call void @llvm.memset.p0.i64(ptr align 8 %12, i8 0, i64 32, i1 false)
  %32 = load ptr, ptr @G, align 8, !tbaa !11
  %33 = load ptr, ptr %5, align 8, !tbaa !21
  %34 = call ptr @mkGraph(ptr noundef %32, ptr noundef null, ptr noundef %33, ptr noundef %11, ptr noundef %12)
  store ptr %34, ptr %9, align 8, !tbaa !49
  call void @agxbfree(ptr noundef %11)
  call void @agxbfree(ptr noundef %12)
  call void @llvm.lifetime.end.p0(i64 32, ptr %12) #15
  call void @llvm.lifetime.end.p0(i64 32, ptr %11) #15
  br label %35

35:                                               ; preds = %31, %30
  call void @cleanup()
  %36 = load ptr, ptr %9, align 8, !tbaa !49
  call void @llvm.lifetime.end.p0(i64 4, ptr %10) #15
  call void @llvm.lifetime.end.p0(i64 8, ptr %9) #15
  ret ptr %36
}