; Function Attrs: nounwind uwtable
define dso_local ptr @gml_to_gv(ptr noundef %0, ptr noundef %1, i32 noundef %2, ptr noundef captures(none) %3) local_unnamed_addr #0 {
  %5 = alloca %struct.agxbuf, align 8
  %6 = alloca %struct.agxbuf, align 8
  %7 = icmp eq i32 %2, 0
  %. = select i1 %7, ptr %1, ptr null
  tail call void @initgmlscan(ptr noundef %.) #20
  store ptr null, ptr @L, align 8, !tbaa !13
  tail call fastcc void @pushAlist()
  %8 = tail call i32 @gmlparse()
  %9 = tail call i32 @gmlerrors() #20
  %10 = load i32, ptr %3, align 4, !tbaa !36
  %11 = or i32 %10, %9
  store i32 %11, ptr %3, align 4, !tbaa !36
  %12 = load ptr, ptr @G, align 8, !tbaa !34
  %13 = icmp eq ptr %12, null
  %14 = icmp ne i32 %9, 0
  %or.cond = select i1 %13, i1 true, i1 %14
  br i1 %or.cond, label %23, label %15

15:                                               ; preds = %4
  call void @llvm.lifetime.start.p0(i64 32, ptr nonnull %5) #20
  call void @llvm.memset.p0.i64(ptr noundef nonnull align 8 dereferenceable(32) %5, i8 0, i64 32, i1 false)
  call void @llvm.lifetime.start.p0(i64 32, ptr nonnull %6) #20
  call void @llvm.memset.p0.i64(ptr noundef nonnull align 8 dereferenceable(32) %6, i8 0, i64 32, i1 false)
  %16 = call fastcc ptr @mkGraph(ptr noundef nonnull %12, ptr noundef null, ptr noundef %0, ptr noundef %5, ptr noundef %6)
  %17 = getelementptr inbounds nuw i8, ptr %5, i64 31
  %.val7 = load i8, ptr %17, align 1, !tbaa !18
  %18 = icmp eq i8 %.val7, -1
  br i1 %18, label %19, label %agxbfree.exit

19:                                               ; preds = %15
  %.val = load ptr, ptr %5, align 8
  call void @free(ptr noundef %.val) #20
  br label %agxbfree.exit

agxbfree.exit:                                    ; preds = %15, %19
  %20 = getelementptr inbounds nuw i8, ptr %6, i64 31
  %.val9 = load i8, ptr %20, align 1, !tbaa !18
  %21 = icmp eq i8 %.val9, -1
  br i1 %21, label %22, label %agxbfree.exit10

22:                                               ; preds = %agxbfree.exit
  %.val8 = load ptr, ptr %6, align 8
  call void @free(ptr noundef %.val8) #20
  br label %agxbfree.exit10

agxbfree.exit10:                                  ; preds = %agxbfree.exit, %22
  call void @llvm.lifetime.end.p0(i64 32, ptr nonnull %6) #20
  call void @llvm.lifetime.end.p0(i64 32, ptr nonnull %5) #20
  br label %23

23:                                               ; preds = %4, %agxbfree.exit10
  %.0 = phi ptr [ %16, %agxbfree.exit10 ], [ null, %4 ]
  call fastcc void @cleanup()
  ret ptr %.0
}